target datalayout = "e-m:e-p270:32:32-p271:32:32-p272:64:64-i64:64-i128:128-f80:128-n8:16:32:64-S128"
target triple = "x86_64-pc-linux-gnu"

%"class.ncnn::Net" = type { ptr, %"class.ncnn::Option", ptr }
%"class.ncnn::Option" = type { i8, i32, ptr, ptr, i32, i8, i8, i8, i8, i8, i8, i8, i8, i8, i8, i8, i8, i8, i8, i8, i8, i8, i8, i8, i8, i32, i8, i8, i8, i8, i8, i8, i8, i8, i8, i8, i8, i8 }

@_ZN4ncnn10NetPrivateC1ERNS_6OptionE = hidden unnamed_addr alias void (ptr, ptr), ptr @_ZN4ncnn10NetPrivateC2ERNS_6OptionE

; Function Attrs: mustprogress uwtable
define hidden void @_ZN4ncnn3NetC2Ev(ptr noundef nonnull align 8 dereferenceable(80) %0) unnamed_addr #1 align 2 personality ptr @__gxx_personality_v0 {
  %2 = alloca ptr, align 8
  %3 = alloca ptr, align 8
  %4 = alloca i32, align 4
  store ptr %0, ptr %2, align 8, !tbaa !4
  %5 = load ptr, ptr %2, align 8
  store ptr getelementptr inbounds inrange(-16, 56) ({ [9 x ptr] }, ptr @_ZTVN4ncnn3NetE, i32 0, i32 0, i32 2), ptr %5, align 8, !tbaa !24
  %6 = getelementptr inbounds nuw %"class.ncnn::Net", ptr %5, i32 0, i32 1
  call void @_ZN4ncnn6OptionC1Ev(ptr noundef nonnull align 8 dereferenceable(64) %6)
  %7 = getelementptr inbounds nuw %"class.ncnn::Net", ptr %5, i32 0, i32 2
  %8 = call noalias noundef nonnull ptr @_Znwm(i64 noundef 216) #21
  %9 = getelementptr inbounds nuw %"class.ncnn::Net", ptr %5, i32 0, i32 1
  invoke void @_ZN4ncnn10NetPrivateC1ERNS_6OptionE(ptr noundef nonnull align 8 dereferenceable(216) %8, ptr noundef nonnull align 8 dereferenceable(64) %9)
          to label %10 unwind label %11

10:                                               ; preds = %1
  store ptr %8, ptr %7, align 8, !tbaa !11
  ret void

11:                                               ; preds = %1
  %12 = landingpad { ptr, i32 }
          cleanup
  %13 = extractvalue { ptr, i32 } %12, 0
  store ptr %13, ptr %3, align 8
  %14 = extractvalue { ptr, i32 } %12, 1
  store i32 %14, ptr %4, align 4
  call void @_ZdlPvm(ptr noundef %8, i64 noundef 216) #17
  br label %15

15:                                               ; preds = %11
  %16 = load ptr, ptr %3, align 8
  %17 = load i32, ptr %4, align 4
  %18 = insertvalue { ptr, i32 } poison, ptr %16, 0
  %19 = insertvalue { ptr, i32 } %18, i32 %17, 1
  resume { ptr, i32 } %19
}