; Function Attrs: mustprogress uwtable
define hidden void @_ZN4ncnn3NetC2Ev(ptr noundef nonnull align 8 dereferenceable(80) initializes((0, 8)) %0) unnamed_addr #2 align 2 personality ptr @__gxx_personality_v0 {
  store ptr getelementptr inbounds nuw inrange(-16, 56) (i8, ptr @_ZTVN4ncnn3NetE, i64 16), ptr %0, align 8, !tbaa !4
  %2 = getelementptr inbounds nuw i8, ptr %0, i64 8
  tail call void @_ZN4ncnn6OptionC1Ev(ptr noundef nonnull align 8 dereferenceable(64) %2)
  %3 = tail call noalias noundef nonnull dereferenceable(216) ptr @_Znwm(i64 noundef 216) #31
  store ptr %2, ptr %3, align 8, !tbaa !51
  %4 = getelementptr inbounds nuw i8, ptr %3, i64 8
  tail call void @llvm.memset.p0.i64(ptr noundef nonnull align 8 dereferenceable(208) %4, i8 0, i64 208, i1 false)
  %5 = getelementptr inbounds nuw i8, ptr %0, i64 72
  store ptr %3, ptr %5, align 8, !tbaa !7
  ret void
}